target datalayout = "e-m:e-p270:32:32-p271:32:32-p272:64:64-i64:64-i128:128-f80:128-n8:16:32:64-S128"
target triple = "x86_64-pc-linux-gnu"

%struct.slurm_conf_t = type { i64, ptr, i16, ptr, ptr, ptr, ptr, ptr, i16, ptr, ptr, ptr, ptr, ptr, ptr, ptr, i16, ptr, ptr, ptr, ptr, i16, ptr, ptr, ptr, i64, ptr, ptr, ptr, ptr, i16, ptr, ptr, i16, i32, ptr, i32, ptr, i32, i32, ptr, ptr, i64, i64, ptr, i16, i16, ptr, i32, i32, ptr, i32, ptr, i32, i16, i16, i16, ptr, i16, i16, ptr, ptr, i32, i16, i16, ptr, i32, i16, ptr, ptr, ptr, ptr, i16, ptr, ptr, ptr, ptr, i32, ptr, ptr, ptr, ptr, i16, i16, ptr, i32, i32, i32, i16, i16, ptr, ptr, i16, ptr, ptr, i32, i32, i32, i32, i32, i64, i32, i32, i16, ptr, ptr, i32, ptr, ptr, ptr, i16, i32, ptr, ptr, i16, ptr, ptr, i32, i16, ptr, ptr, ptr, ptr, i32, i32, i16, i16, i32, ptr, i16, ptr, i32, i32, i32, i32, i32, i32, ptr, i16, ptr, ptr, i32, i16, ptr, i32, i16, i16, ptr, ptr, ptr, i16, ptr, ptr, ptr, ptr, i16, i16, ptr, i16, ptr, i16, ptr, i16, ptr, i16, ptr, ptr, ptr, ptr, i16, ptr, ptr, ptr, i32, ptr, i32, ptr, ptr, i16, ptr, ptr, i32, i16, ptr, ptr, i16, i16, ptr, i16, ptr, ptr, ptr, i32, ptr, i16, i16, ptr, ptr, ptr, ptr, ptr, ptr, ptr, ptr, i16, i32, i16, ptr, ptr, ptr, ptr, i32, ptr, ptr, ptr, i16, ptr, ptr, ptr, i16, ptr, i16, ptr, i16, i16, ptr }

@plugin_type = dso_local constant [22 x i8] c"node_features/helpers\00", align 16
@helper_exclusives = internal global ptr null, align 8
@slurm_conf = external global %struct.slurm_conf_t, align 8
@.str.40 = private unnamed_addr constant [73 x i8] c"%s: %s: NODE_FEATURES: Testing if feature list %s has exclusive features\00", align 1
@__func__._has_exclusive_features = private unnamed_addr constant [24 x i8] c"_has_exclusive_features\00", align 1

; Function Attrs: nounwind uwtable
define internal i32 @_has_exclusive_features(ptr noundef %0, ptr noundef %1) #0 {
  %3 = alloca ptr, align 8
  %4 = alloca ptr, align 8
  %5 = alloca ptr, align 8
  %6 = alloca ptr, align 8
  %7 = alloca i32, align 4
  store ptr %0, ptr %3, align 8
  store ptr %1, ptr %4, align 8
  call void @llvm.lifetime.start.p0(i64 8, ptr %5) #8
  %8 = load ptr, ptr %3, align 8
  store ptr %8, ptr %5, align 8
  call void @llvm.lifetime.start.p0(i64 8, ptr %6) #8
  store ptr null, ptr %6, align 8
  call void @llvm.lifetime.start.p0(i64 4, ptr %7) #8
  store i32 0, ptr %7, align 4
  %9 = load ptr, ptr %5, align 8
  %10 = call i32 @job_features_set2str(ptr noundef %9, ptr noundef %6)
  br label %11

11:                                               ; preds = %2
  %12 = load i64, ptr getelementptr inbounds nuw (%struct.slurm_conf_t, ptr @slurm_conf, i32 0, i32 42), align 8
  %13 = and i64 %12, 140737488355328
  %14 = icmp ne i64 %13, 0
  br i1 %14, label %15, label %24

15:                                               ; preds = %11
  br label %16

16:                                               ; preds = %15
  %17 = call i32 @get_log_level()
  %18 = icmp sge i32 %17, 4
  br i1 %18, label %19, label %21

19:                                               ; preds = %16
  %20 = load ptr, ptr %6, align 8
  call void (i32, ptr, ...) @log_var(i32 noundef 4, ptr noundef @.str.40, ptr noundef @plugin_type, ptr noundef @__func__._has_exclusive_features, ptr noundef %20)
  br label %21

21:                                               ; preds = %19, %16
  br label %22

22:                                               ; preds = %21
  br label %23

23:                                               ; preds = %22
  br label %24

24:                                               ; preds = %23, %11
  br label %25

25:                                               ; preds = %24
  br label %26

26:                                               ; preds = %25
  %27 = load ptr, ptr %5, align 8
  %28 = call i32 @list_count(ptr noundef %27)
  %29 = icmp sgt i32 %28, 1
  br i1 %29, label %30, label %34

30:                                               ; preds = %26
  %31 = load ptr, ptr @helper_exclusives, align 8
  %32 = load ptr, ptr %6, align 8
  %33 = call i32 @list_for_each(ptr noundef %31, ptr noundef @_count_exclusivity, ptr noundef %32)
  store i32 %33, ptr %7, align 4
  br label %34

34:                                               ; preds = %30, %26
  call void @slurm_xfree(ptr noundef %6)
  %35 = load i32, ptr %7, align 4
  call void @llvm.lifetime.end.p0(i64 4, ptr %7) #8
  call void @llvm.lifetime.end.p0(i64 8, ptr %6) #8
  call void @llvm.lifetime.end.p0(i64 8, ptr %5) #8
  ret i32 %35
}