; Function Attrs: nounwind uwtable
define internal i32 @_has_exclusive_features(ptr noundef %0, ptr readnone captures(none) %1) #0 {
  %3 = alloca ptr, align 8
  call void @llvm.lifetime.start.p0(i64 8, ptr nonnull %3) #10
  store ptr null, ptr %3, align 8
  %4 = call i32 @job_features_set2str(ptr noundef %0, ptr noundef nonnull %3) #10
  %5 = load i64, ptr getelementptr inbounds nuw (i8, ptr @slurm_conf, i64 320), align 8
  %6 = and i64 %5, 140737488355328
  %.not = icmp eq i64 %6, 0
  br i1 %.not, label %12, label %7

7:                                                ; preds = %2
  %8 = call i32 @get_log_level() #10
  %9 = icmp sgt i32 %8, 3
  br i1 %9, label %10, label %12

10:                                               ; preds = %7
  %11 = load ptr, ptr %3, align 8
  call void (i32, ptr, ...) @log_var(i32 noundef 4, ptr noundef nonnull @.str.40, ptr noundef nonnull @plugin_type, ptr noundef nonnull @__func__._has_exclusive_features, ptr noundef %11) #10
  br label %12

12:                                               ; preds = %7, %10, %2
  %13 = call i32 @list_count(ptr noundef %0) #10
  %14 = icmp sgt i32 %13, 1
  br i1 %14, label %15, label %19

15:                                               ; preds = %12
  %16 = load ptr, ptr @helper_exclusives, align 8
  %17 = load ptr, ptr %3, align 8
  %18 = call i32 @list_for_each(ptr noundef %16, ptr noundef nonnull @_count_exclusivity, ptr noundef %17) #10
  br label %19

19:                                               ; preds = %15, %12
  %.0 = phi i32 [ %18, %15 ], [ 0, %12 ]
  call void @slurm_xfree(ptr noundef nonnull %3) #10
  call void @llvm.lifetime.end.p0(i64 8, ptr nonnull %3) #10
  ret i32 %.0
}